target datalayout = "e-m:e-p270:32:32-p271:32:32-p272:64:64-i64:64-i128:128-f80:128-n8:16:32:64-S128"
target triple = "x86_64-pc-linux-gnu"

%struct.aiColor3D = type { float, float, float }
%"struct.Assimp::Maybe.28" = type <{ %struct.aiColor3D, i8, [3 x i8] }>

; Function Attrs: mustprogress nounwind uwtable
define linkonce_odr hidden noundef nonnull align 4 dereferenceable(12) ptr @_ZN9aiColor3DaSERKS_(ptr noundef nonnull align 4 dereferenceable(12) %0, ptr noundef nonnull align 4 dereferenceable(12) %1) #1 comdat align 2 {
  %3 = alloca ptr, align 8
  %4 = alloca ptr, align 8
  store ptr %0, ptr %3, align 8
  store ptr %1, ptr %4, align 8
  %5 = load ptr, ptr %3, align 8
  %6 = load ptr, ptr %4, align 8
  %7 = getelementptr inbounds nuw %struct.aiColor3D, ptr %6, i32 0, i32 0
  %8 = load float, ptr %7, align 4
  %9 = getelementptr inbounds nuw %struct.aiColor3D, ptr %5, i32 0, i32 0
  store float %8, ptr %9, align 4
  %10 = load ptr, ptr %4, align 8
  %11 = getelementptr inbounds nuw %struct.aiColor3D, ptr %10, i32 0, i32 1
  %12 = load float, ptr %11, align 4
  %13 = getelementptr inbounds nuw %struct.aiColor3D, ptr %5, i32 0, i32 1
  store float %12, ptr %13, align 4
  %14 = load ptr, ptr %4, align 8
  %15 = getelementptr inbounds nuw %struct.aiColor3D, ptr %14, i32 0, i32 2
  %16 = load float, ptr %15, align 4
  %17 = getelementptr inbounds nuw %struct.aiColor3D, ptr %5, i32 0, i32 2
  store float %16, ptr %17, align 4
  ret ptr %5
}

; Function Attrs: mustprogress nounwind uwtable
define linkonce_odr hidden void @_ZN9aiColor3DC2ERKS_(ptr noundef nonnull align 4 dereferenceable(12) %0, ptr noundef nonnull align 4 dereferenceable(12) %1) unnamed_addr #1 comdat align 2 {
  %3 = alloca ptr, align 8
  %4 = alloca ptr, align 8
  store ptr %0, ptr %3, align 8
  store ptr %1, ptr %4, align 8
  %5 = load ptr, ptr %3, align 8
  %6 = getelementptr inbounds nuw %struct.aiColor3D, ptr %5, i32 0, i32 0
  %7 = load ptr, ptr %4, align 8
  %8 = getelementptr inbounds nuw %struct.aiColor3D, ptr %7, i32 0, i32 0
  %9 = load float, ptr %8, align 4
  store float %9, ptr %6, align 4
  %10 = getelementptr inbounds nuw %struct.aiColor3D, ptr %5, i32 0, i32 1
  %11 = load ptr, ptr %4, align 8
  %12 = getelementptr inbounds nuw %struct.aiColor3D, ptr %11, i32 0, i32 1
  %13 = load float, ptr %12, align 4
  store float %13, ptr %10, align 4
  %14 = getelementptr inbounds nuw %struct.aiColor3D, ptr %5, i32 0, i32 2
  %15 = load ptr, ptr %4, align 8
  %16 = getelementptr inbounds nuw %struct.aiColor3D, ptr %15, i32 0, i32 2
  %17 = load float, ptr %16, align 4
  store float %17, ptr %14, align 4
  ret void
}

; Function Attrs: mustprogress uwtable
define linkonce_odr hidden noundef nonnull align 4 dereferenceable(13) ptr @_ZN6Assimp5MaybeI9aiColor3DEaSERKS2_(ptr noundef nonnull align 4 dereferenceable(13) %0, ptr noundef nonnull align 4 dereferenceable(13) %1) #0 comdat align 2 {
  %3 = alloca ptr, align 8
  %4 = alloca ptr, align 8
  store ptr %0, ptr %3, align 8
  store ptr %1, ptr %4, align 8
  %5 = load ptr, ptr %3, align 8
  %6 = getelementptr inbounds nuw %"struct.Assimp::Maybe.28", ptr %5, i32 0, i32 0
  %7 = load ptr, ptr %4, align 8
  %8 = getelementptr inbounds nuw %"struct.Assimp::Maybe.28", ptr %7, i32 0, i32 0
  %9 = call noundef nonnull align 4 dereferenceable(12) ptr @_ZN9aiColor3DaSERKS_(ptr noundef nonnull align 4 dereferenceable(12) %6, ptr noundef nonnull align 4 dereferenceable(12) %8)
  %10 = load ptr, ptr %4, align 8
  %11 = getelementptr inbounds nuw %"struct.Assimp::Maybe.28", ptr %10, i32 0, i32 1
  %12 = load i8, ptr %11, align 4, !range !7, !noundef !8
  %13 = trunc i8 %12 to i1
  %14 = getelementptr inbounds nuw %"struct.Assimp::Maybe.28", ptr %5, i32 0, i32 1
  %15 = zext i1 %13 to i8
  store i8 %15, ptr %14, align 4
  ret ptr %5
}

; Function Attrs: mustprogress uwtable
define linkonce_odr hidden void @_ZN6Assimp5MaybeI9aiColor3DEC2IRS1_EEOT_(ptr noundef nonnull align 4 dereferenceable(13) %0, ptr noundef nonnull align 4 dereferenceable(12) %1) unnamed_addr #0 comdat align 2 {
  %3 = alloca ptr, align 8
  %4 = alloca ptr, align 8
  store ptr %0, ptr %3, align 8
  store ptr %1, ptr %4, align 8
  %5 = load ptr, ptr %3, align 8
  %6 = getelementptr inbounds nuw %"struct.Assimp::Maybe.28", ptr %5, i32 0, i32 0
  %7 = load ptr, ptr %4, align 8
  call void @_ZN9aiColor3DC2ERKS_(ptr noundef nonnull align 4 dereferenceable(12) %6, ptr noundef nonnull align 4 dereferenceable(12) %7)
  %8 = getelementptr inbounds nuw %"struct.Assimp::Maybe.28", ptr %5, i32 0, i32 1
  store i8 1, ptr %8, align 4
  ret void
}

; Function Attrs: mustprogress nounwind uwtable
define linkonce_odr hidden void @_ZN9aiColor3DC2Ev(ptr noundef nonnull align 4 dereferenceable(12) %0) unnamed_addr #1 comdat align 2 {
  %2 = alloca ptr, align 8
  store ptr %0, ptr %2, align 8
  %3 = load ptr, ptr %2, align 8
  %4 = getelementptr inbounds nuw %struct.aiColor3D, ptr %3, i32 0, i32 0
  store float 0.000000e+00, ptr %4, align 4
  %5 = getelementptr inbounds nuw %struct.aiColor3D, ptr %3, i32 0, i32 1
  store float 0.000000e+00, ptr %5, align 4
  %6 = getelementptr inbounds nuw %struct.aiColor3D, ptr %3, i32 0, i32 2
  store float 0.000000e+00, ptr %6, align 4
  ret void
}

; Function Attrs: mustprogress uwtable
define hidden void @_ZN6Assimp18ObjFileMtlImporter12getColorRGBAERNS_5MaybeI9aiColor3DEE(ptr noundef nonnull align 8 dereferenceable(88) %0, ptr noundef nonnull align 4 dereferenceable(13) %1) #0 align 2 {
  %3 = alloca ptr, align 8
  %4 = alloca ptr, align 8
  %5 = alloca %struct.aiColor3D, align 4
  %6 = alloca %"struct.Assimp::Maybe.28", align 4
  store ptr %0, ptr %3, align 8
  store ptr %1, ptr %4, align 8
  %7 = load ptr, ptr %3, align 8
  call void @llvm.lifetime.start.p0(i64 12, ptr %5) #17
  call void @_ZN9aiColor3DC2Ev(ptr noundef nonnull align 4 dereferenceable(12) %5) #17
  call void @_ZN6Assimp18ObjFileMtlImporter12getColorRGBAEP9aiColor3D(ptr noundef nonnull align 8 dereferenceable(88) %7, ptr noundef %5)
  call void @llvm.lifetime.start.p0(i64 16, ptr %6) #17
  call void @_ZN6Assimp5MaybeI9aiColor3DEC2IRS1_EEOT_(ptr noundef nonnull align 4 dereferenceable(13) %6, ptr noundef nonnull align 4 dereferenceable(12) %5)
  %8 = load ptr, ptr %4, align 8
  %9 = call noundef nonnull align 4 dereferenceable(13) ptr @_ZN6Assimp5MaybeI9aiColor3DEaSERKS2_(ptr noundef nonnull align 4 dereferenceable(13) %8, ptr noundef nonnull align 4 dereferenceable(13) %6)
  call void @llvm.lifetime.end.p0(i64 16, ptr %6) #17
  call void @llvm.lifetime.end.p0(i64 12, ptr %5) #17
  ret void
}