; Function Attrs: mustprogress uwtable
define hidden void @_ZN6Assimp18ObjFileMtlImporter12getColorRGBAERNS_5MaybeI9aiColor3DEE(ptr noundef nonnull align 8 captures(none) dereferenceable(88) %0, ptr noundef nonnull writeonly align 4 captures(none) dereferenceable(13) initializes((0, 13)) %1) local_unnamed_addr #0 align 2 {
  %3 = alloca %struct.aiColor3D, align 4
  call void @llvm.lifetime.start.p0(i64 12, ptr nonnull %3) #23
  store float 0.000000e+00, ptr %3, align 4
  %4 = getelementptr inbounds nuw i8, ptr %3, i64 4
  store float 0.000000e+00, ptr %4, align 4
  %5 = getelementptr inbounds nuw i8, ptr %3, i64 8
  store float 0.000000e+00, ptr %5, align 4
  call void @_ZN6Assimp18ObjFileMtlImporter12getColorRGBAEP9aiColor3D(ptr noundef nonnull align 8 dereferenceable(88) %0, ptr noundef nonnull %3)
  %6 = load float, ptr %3, align 4
  %7 = load float, ptr %4, align 4
  %8 = load float, ptr %5, align 4
  store float %6, ptr %1, align 4
  %9 = getelementptr inbounds nuw i8, ptr %1, i64 4
  store float %7, ptr %9, align 4
  %10 = getelementptr inbounds nuw i8, ptr %1, i64 8
  store float %8, ptr %10, align 4
  %11 = getelementptr inbounds nuw i8, ptr %1, i64 12
  store i8 1, ptr %11, align 4
  call void @llvm.lifetime.end.p0(i64 12, ptr nonnull %3) #23
  ret void
}